target datalayout = "e-m:e-p270:32:32-p271:32:32-p272:64:64-i64:64-i128:128-f80:128-n8:16:32:64-S128"
target triple = "x86_64-pc-linux-gnu"

%struct.hwloc_infos_s = type { ptr, i32, i32 }
%struct.hwloc_obj = type { i32, ptr, i32, ptr, i64, ptr, i32, i32, ptr, ptr, ptr, i32, ptr, ptr, i32, ptr, ptr, ptr, i32, i32, ptr, i32, ptr, i32, ptr, ptr, ptr, ptr, ptr, %struct.hwloc_infos_s, ptr, i64 }
%struct.hwloc_utils_userdata = type { ptr, i64, ptr, ptr }

; Function Attrs: inlinehint nounwind uwtable
define internal void @hwloc_utils_userdata_import_cb(ptr noundef %0, ptr noundef %1, ptr noundef %2, ptr noundef %3, i64 noundef %4) #4 {
  %6 = alloca ptr, align 8
  %7 = alloca ptr, align 8
  %8 = alloca ptr, align 8
  %9 = alloca ptr, align 8
  %10 = alloca i64, align 8
  %11 = alloca ptr, align 8
  %12 = alloca ptr, align 8
  store ptr %0, ptr %6, align 8, !tbaa !25
  store ptr %1, ptr %7, align 8, !tbaa !35
  store ptr %2, ptr %8, align 8, !tbaa !4
  store ptr %3, ptr %9, align 8, !tbaa !46
  store i64 %4, ptr %10, align 8, !tbaa !21
  call void @llvm.lifetime.start.p0(i64 8, ptr %11) #11
  call void @llvm.lifetime.start.p0(i64 8, ptr %12) #11
  %13 = load ptr, ptr %7, align 8, !tbaa !35
  %14 = getelementptr inbounds nuw %struct.hwloc_obj, ptr %13, i32 0, i32 30
  store ptr %14, ptr %12, align 8, !tbaa !47
  br label %15

15:                                               ; preds = %19, %5
  %16 = load ptr, ptr %12, align 8, !tbaa !47
  %17 = load ptr, ptr %16, align 8, !tbaa !49
  %18 = icmp ne ptr %17, null
  br i1 %18, label %19, label %23

19:                                               ; preds = %15
  %20 = load ptr, ptr %12, align 8, !tbaa !47
  %21 = load ptr, ptr %20, align 8, !tbaa !49
  %22 = getelementptr inbounds nuw %struct.hwloc_utils_userdata, ptr %21, i32 0, i32 3
  store ptr %22, ptr %12, align 8, !tbaa !47
  br label %15, !llvm.loop !51

23:                                               ; preds = %15
  %24 = call noalias ptr @malloc(i64 noundef 32) #15
  store ptr %24, ptr %11, align 8, !tbaa !49
  %25 = load ptr, ptr %12, align 8, !tbaa !47
  store ptr %24, ptr %25, align 8, !tbaa !49
  %26 = load ptr, ptr %8, align 8, !tbaa !4
  %27 = call noalias ptr @strdup(ptr noundef %26) #11
  %28 = load ptr, ptr %11, align 8, !tbaa !49
  %29 = getelementptr inbounds nuw %struct.hwloc_utils_userdata, ptr %28, i32 0, i32 0
  store ptr %27, ptr %29, align 8, !tbaa !52
  %30 = load i64, ptr %10, align 8, !tbaa !21
  %31 = load ptr, ptr %11, align 8, !tbaa !49
  %32 = getelementptr inbounds nuw %struct.hwloc_utils_userdata, ptr %31, i32 0, i32 1
  store i64 %30, ptr %32, align 8, !tbaa !54
  %33 = load ptr, ptr %9, align 8, !tbaa !46
  %34 = call noalias ptr @strdup(ptr noundef %33) #11
  %35 = load ptr, ptr %11, align 8, !tbaa !49
  %36 = getelementptr inbounds nuw %struct.hwloc_utils_userdata, ptr %35, i32 0, i32 2
  store ptr %34, ptr %36, align 8, !tbaa !55
  %37 = load ptr, ptr %11, align 8, !tbaa !49
  %38 = getelementptr inbounds nuw %struct.hwloc_utils_userdata, ptr %37, i32 0, i32 3
  store ptr null, ptr %38, align 8, !tbaa !56
  call void @llvm.lifetime.end.p0(i64 8, ptr %12) #11
  call void @llvm.lifetime.end.p0(i64 8, ptr %11) #11
  ret void
}