; Function Attrs: inlinehint nofree nounwind uwtable
define internal void @hwloc_utils_userdata_import_cb(ptr readnone captures(none) %0, ptr noundef captures(none) %1, ptr noundef readonly captures(none) %2, ptr noundef readonly captures(none) %3, i64 noundef %4) #11 {
  %6 = getelementptr inbounds nuw i8, ptr %1, i64 232
  br label %7

7:                                                ; preds = %7, %5
  %.0 = phi ptr [ %6, %5 ], [ %9, %7 ]
  %8 = load ptr, ptr %.0, align 8, !tbaa !44
  %.not = icmp eq ptr %8, null
  %9 = getelementptr inbounds nuw i8, ptr %8, i64 24
  br i1 %.not, label %10, label %7, !llvm.loop !46

10:                                               ; preds = %7
  %11 = tail call noalias dereferenceable_or_null(32) ptr @malloc(i64 noundef 32) #34
  store ptr %11, ptr %.0, align 8, !tbaa !44
  %12 = tail call noalias ptr @strdup(ptr noundef %2) #27
  store ptr %12, ptr %11, align 8, !tbaa !47
  %13 = getelementptr inbounds nuw i8, ptr %11, i64 8
  store i64 %4, ptr %13, align 8, !tbaa !49
  %14 = tail call noalias ptr @strdup(ptr noundef %3) #27
  %15 = getelementptr inbounds nuw i8, ptr %11, i64 16
  store ptr %14, ptr %15, align 8, !tbaa !50
  %16 = getelementptr inbounds nuw i8, ptr %11, i64 24
  store ptr null, ptr %16, align 8, !tbaa !51
  ret void
}